target datalayout = "e-m:e-p270:32:32-p271:32:32-p272:64:64-i64:64-i128:128-f80:128-n8:16:32:64-S128"
target triple = "x86_64-unknown-linux-gnu"

%"struct.std::__detail::_Hash_node_base" = type { ptr }
%"struct.std::__detail::_Prime_rehash_policy" = type { float, i64 }
%"class.std::unordered_map.289" = type { %"class.std::_Hashtable.290" }
%"class.std::_Hashtable.290" = type { ptr, i64, %"struct.std::__detail::_Hash_node_base", i64, %"struct.std::__detail::_Prime_rehash_policy", ptr }
%"class.std::unordered_map.303" = type { %"class.std::_Hashtable.304" }
%"class.std::_Hashtable.304" = type { ptr, i64, %"struct.std::__detail::_Hash_node_base", i64, %"struct.std::__detail::_Prime_rehash_policy", ptr }
%"struct.std::__detail::_Node_iterator_base.578" = type { ptr }
%"struct.std::__detail::_Node_iterator_base.596" = type { ptr }
%"struct.std::__detail::_Node_const_iterator.778" = type { %"struct.std::__detail::_Node_iterator_base.578" }
%"struct.std::__detail::_Node_const_iterator.779" = type { %"struct.std::__detail::_Node_iterator_base.596" }

; Function Attrs: mustprogress uwtable
define linkonce_odr noundef i64 @_ZNKSt10_HashtableINSt7__cxx1112basic_stringIcSt11char_traitsIcESaIcEEESt4pairIKS5_St8functionIFSt10shared_ptrIKN8facebook5velox4TypeEERKSt6vectorINSB_13TypeParameterESaISG_EEEEESaISN_ENSt8__detail10_Select1stESt8equal_toIS5_ESt4hashIS5_ENSP_18_Mod_range_hashingENSP_20_Default_ranged_hashENSP_20_Prime_rehash_policyENSP_17_Hashtable_traitsILb1ELb0ELb1EEEE5countERS7_(ptr noundef nonnull align 8 dereferenceable(56) %this, ptr noundef nonnull align 8 dereferenceable(32) %__k) #0 comdat align 2 {
entry:
  %retval = alloca i64, align 8
  %this.addr = alloca ptr, align 8
  %__k.addr = alloca ptr, align 8
  %__it = alloca %"struct.std::__detail::_Node_const_iterator.779", align 8
  store ptr %this, ptr %this.addr, align 8
  store ptr %__k, ptr %__k.addr, align 8
  %this1 = load ptr, ptr %this.addr, align 8
  %0 = load ptr, ptr %__k.addr, align 8
  %call = call ptr @_ZNKSt10_HashtableINSt7__cxx1112basic_stringIcSt11char_traitsIcESaIcEEESt4pairIKS5_St8functionIFSt10shared_ptrIKN8facebook5velox4TypeEERKSt6vectorINSB_13TypeParameterESaISG_EEEEESaISN_ENSt8__detail10_Select1stESt8equal_toIS5_ESt4hashIS5_ENSP_18_Mod_range_hashingENSP_20_Default_ranged_hashENSP_20_Prime_rehash_policyENSP_17_Hashtable_traitsILb1ELb0ELb1EEEE4findERS7_(ptr noundef nonnull align 8 dereferenceable(56) %this1, ptr noundef nonnull align 8 dereferenceable(32) %0)
  %coerce.dive = getelementptr inbounds %"struct.std::__detail::_Node_const_iterator.779", ptr %__it, i32 0, i32 0
  %coerce.dive2 = getelementptr inbounds %"struct.std::__detail::_Node_iterator_base.596", ptr %coerce.dive, i32 0, i32 0
  store ptr %call, ptr %coerce.dive2, align 8
  %_M_cur = getelementptr inbounds %"struct.std::__detail::_Node_iterator_base.596", ptr %__it, i32 0, i32 0
  %1 = load ptr, ptr %_M_cur, align 8
  %tobool = icmp ne ptr %1, null
  br i1 %tobool, label %if.end, label %if.then

if.then:                                          ; preds = %entry
  store i64 0, ptr %retval, align 8
  br label %return

if.end:                                           ; preds = %entry
  store i64 1, ptr %retval, align 8
  br label %return

return:                                           ; preds = %if.end, %if.then
  %2 = load i64, ptr %retval, align 8
  ret i64 %2
}

; Function Attrs: mustprogress uwtable
define linkonce_odr noundef i64 @_ZNKSt10_HashtableINSt7__cxx1112basic_stringIcSt11char_traitsIcESaIcEEESt4pairIKS5_St10shared_ptrIKN8facebook5velox4TypeEEESaISE_ENSt8__detail10_Select1stESt8equal_toIS5_ESt4hashIS5_ENSG_18_Mod_range_hashingENSG_20_Default_ranged_hashENSG_20_Prime_rehash_policyENSG_17_Hashtable_traitsILb1ELb0ELb1EEEE5countERS7_(ptr noundef nonnull align 8 dereferenceable(56) %this, ptr noundef nonnull align 8 dereferenceable(32) %__k) #0 comdat align 2 {
entry:
  %retval = alloca i64, align 8
  %this.addr = alloca ptr, align 8
  %__k.addr = alloca ptr, align 8
  %__it = alloca %"struct.std::__detail::_Node_const_iterator.778", align 8
  store ptr %this, ptr %this.addr, align 8
  store ptr %__k, ptr %__k.addr, align 8
  %this1 = load ptr, ptr %this.addr, align 8
  %0 = load ptr, ptr %__k.addr, align 8
  %call = call ptr @_ZNKSt10_HashtableINSt7__cxx1112basic_stringIcSt11char_traitsIcESaIcEEESt4pairIKS5_St10shared_ptrIKN8facebook5velox4TypeEEESaISE_ENSt8__detail10_Select1stESt8equal_toIS5_ESt4hashIS5_ENSG_18_Mod_range_hashingENSG_20_Default_ranged_hashENSG_20_Prime_rehash_policyENSG_17_Hashtable_traitsILb1ELb0ELb1EEEE4findERS7_(ptr noundef nonnull align 8 dereferenceable(56) %this1, ptr noundef nonnull align 8 dereferenceable(32) %0)
  %coerce.dive = getelementptr inbounds %"struct.std::__detail::_Node_const_iterator.778", ptr %__it, i32 0, i32 0
  %coerce.dive2 = getelementptr inbounds %"struct.std::__detail::_Node_iterator_base.578", ptr %coerce.dive, i32 0, i32 0
  store ptr %call, ptr %coerce.dive2, align 8
  %_M_cur = getelementptr inbounds %"struct.std::__detail::_Node_iterator_base.578", ptr %__it, i32 0, i32 0
  %1 = load ptr, ptr %_M_cur, align 8
  %tobool = icmp ne ptr %1, null
  br i1 %tobool, label %if.end, label %if.then

if.then:                                          ; preds = %entry
  store i64 0, ptr %retval, align 8
  br label %return

if.end:                                           ; preds = %entry
  store i64 1, ptr %retval, align 8
  br label %return

return:                                           ; preds = %if.end, %if.then
  %2 = load i64, ptr %retval, align 8
  ret i64 %2
}

; Function Attrs: mustprogress uwtable
define linkonce_odr noundef i64 @_ZNKSt13unordered_mapINSt7__cxx1112basic_stringIcSt11char_traitsIcESaIcEEESt8functionIFSt10shared_ptrIKN8facebook5velox4TypeEERKSt6vectorINS9_13TypeParameterESaISE_EEEESt4hashIS5_ESt8equal_toIS5_ESaISt4pairIKS5_SK_EEE5countERSQ_(ptr noundef nonnull align 8 dereferenceable(56) %this, ptr noundef nonnull align 8 dereferenceable(32) %__x) #0 comdat align 2 {
entry:
  %this.addr = alloca ptr, align 8
  %__x.addr = alloca ptr, align 8
  store ptr %this, ptr %this.addr, align 8
  store ptr %__x, ptr %__x.addr, align 8
  %this1 = load ptr, ptr %this.addr, align 8
  %_M_h = getelementptr inbounds %"class.std::unordered_map.303", ptr %this1, i32 0, i32 0
  %0 = load ptr, ptr %__x.addr, align 8
  %call = call noundef i64 @_ZNKSt10_HashtableINSt7__cxx1112basic_stringIcSt11char_traitsIcESaIcEEESt4pairIKS5_St8functionIFSt10shared_ptrIKN8facebook5velox4TypeEERKSt6vectorINSB_13TypeParameterESaISG_EEEEESaISN_ENSt8__detail10_Select1stESt8equal_toIS5_ESt4hashIS5_ENSP_18_Mod_range_hashingENSP_20_Default_ranged_hashENSP_20_Prime_rehash_policyENSP_17_Hashtable_traitsILb1ELb0ELb1EEEE5countERS7_(ptr noundef nonnull align 8 dereferenceable(56) %_M_h, ptr noundef nonnull align 8 dereferenceable(32) %0)
  ret i64 %call
}

; Function Attrs: mustprogress uwtable
define linkonce_odr noundef i64 @_ZNKSt13unordered_mapINSt7__cxx1112basic_stringIcSt11char_traitsIcESaIcEEESt10shared_ptrIKN8facebook5velox4TypeEESt4hashIS5_ESt8equal_toIS5_ESaISt4pairIKS5_SB_EEE5countERSH_(ptr noundef nonnull align 8 dereferenceable(56) %this, ptr noundef nonnull align 8 dereferenceable(32) %__x) #0 comdat align 2 {
entry:
  %this.addr = alloca ptr, align 8
  %__x.addr = alloca ptr, align 8
  store ptr %this, ptr %this.addr, align 8
  store ptr %__x, ptr %__x.addr, align 8
  %this1 = load ptr, ptr %this.addr, align 8
  %_M_h = getelementptr inbounds %"class.std::unordered_map.289", ptr %this1, i32 0, i32 0
  %0 = load ptr, ptr %__x.addr, align 8
  %call = call noundef i64 @_ZNKSt10_HashtableINSt7__cxx1112basic_stringIcSt11char_traitsIcESaIcEEESt4pairIKS5_St10shared_ptrIKN8facebook5velox4TypeEEESaISE_ENSt8__detail10_Select1stESt8equal_toIS5_ESt4hashIS5_ENSG_18_Mod_range_hashingENSG_20_Default_ranged_hashENSG_20_Prime_rehash_policyENSG_17_Hashtable_traitsILb1ELb0ELb1EEEE5countERS7_(ptr noundef nonnull align 8 dereferenceable(56) %_M_h, ptr noundef nonnull align 8 dereferenceable(32) %0)
  ret i64 %call
}

; Function Attrs: mustprogress uwtable
define noundef zeroext i1 @_ZN8facebook5velox7hasTypeERKNSt7__cxx1112basic_stringIcSt11char_traitsIcESaIcEEE(ptr noundef nonnull align 8 dereferenceable(32) %name) #0 {
entry:
  %retval = alloca i1, align 1
  %name.addr = alloca ptr, align 8
  store ptr %name, ptr %name.addr, align 8
  %call = call noundef nonnull align 8 dereferenceable(56) ptr @_ZN8facebook5velox12_GLOBAL__N_121singletonBuiltInTypesB5cxx11Ev()
  %0 = load ptr, ptr %name.addr, align 8
  %call1 = call noundef i64 @_ZNKSt13unordered_mapINSt7__cxx1112basic_stringIcSt11char_traitsIcESaIcEEESt10shared_ptrIKN8facebook5velox4TypeEESt4hashIS5_ESt8equal_toIS5_ESaISt4pairIKS5_SB_EEE5countERSH_(ptr noundef nonnull align 8 dereferenceable(56) %call, ptr noundef nonnull align 8 dereferenceable(32) %0)
  %tobool = icmp ne i64 %call1, 0
  br i1 %tobool, label %if.then, label %if.end

if.then:                                          ; preds = %entry
  store i1 true, ptr %retval, align 1
  br label %return

if.end:                                           ; preds = %entry
  %call2 = call noundef nonnull align 8 dereferenceable(56) ptr @_ZN8facebook5velox12_GLOBAL__N_122parametricBuiltinTypesB5cxx11Ev()
  %1 = load ptr, ptr %name.addr, align 8
  %call3 = call noundef i64 @_ZNKSt13unordered_mapINSt7__cxx1112basic_stringIcSt11char_traitsIcESaIcEEESt8functionIFSt10shared_ptrIKN8facebook5velox4TypeEERKSt6vectorINS9_13TypeParameterESaISE_EEEESt4hashIS5_ESt8equal_toIS5_ESaISt4pairIKS5_SK_EEE5countERSQ_(ptr noundef nonnull align 8 dereferenceable(56) %call2, ptr noundef nonnull align 8 dereferenceable(32) %1)
  %tobool4 = icmp ne i64 %call3, 0
  br i1 %tobool4, label %if.then5, label %if.end6

if.then5:                                         ; preds = %if.end
  store i1 true, ptr %retval, align 1
  br label %return

if.end6:                                          ; preds = %if.end
  %2 = load ptr, ptr %name.addr, align 8
  %call7 = call noundef zeroext i1 @_ZN8facebook5velox16customTypeExistsERKNSt7__cxx1112basic_stringIcSt11char_traitsIcESaIcEEE(ptr noundef nonnull align 8 dereferenceable(32) %2)
  br i1 %call7, label %if.then8, label %if.end9

if.then8:                                         ; preds = %if.end6
  store i1 true, ptr %retval, align 1
  br label %return

if.end9:                                          ; preds = %if.end6
  store i1 false, ptr %retval, align 1
  br label %return

return:                                           ; preds = %if.end9, %if.then8, %if.then5, %if.then
  %3 = load i1, ptr %retval, align 1
  ret i1 %3
}