; Function Attrs: mustprogress uwtable
define noundef zeroext i1 @_ZN8facebook5velox7hasTypeERKNSt7__cxx1112basic_stringIcSt11char_traitsIcESaIcEEE(ptr noundef nonnull align 8 dereferenceable(32) %name) local_unnamed_addr #0 {
entry:
  tail call fastcc void @_ZN8facebook5velox12_GLOBAL__N_121singletonBuiltInTypesB5cxx11Ev()
  %call.i.i = tail call ptr @_ZNKSt10_HashtableINSt7__cxx1112basic_stringIcSt11char_traitsIcESaIcEEESt4pairIKS5_St10shared_ptrIKN8facebook5velox4TypeEEESaISE_ENSt8__detail10_Select1stESt8equal_toIS5_ESt4hashIS5_ENSG_18_Mod_range_hashingENSG_20_Default_ranged_hashENSG_20_Prime_rehash_policyENSG_17_Hashtable_traitsILb1ELb0ELb1EEEE4findERS7_(ptr noundef nonnull align 8 dereferenceable(56) @_ZZN8facebook5velox12_GLOBAL__N_121singletonBuiltInTypesB5cxx11EvE6kTypesB5cxx11, ptr noundef nonnull align 8 dereferenceable(32) %name)
  %tobool.not.i.i.not = icmp eq ptr %call.i.i, null
  br i1 %tobool.not.i.i.not, label %if.end, label %return

if.end:                                           ; preds = %entry
  tail call fastcc void @_ZN8facebook5velox12_GLOBAL__N_122parametricBuiltinTypesB5cxx11Ev()
  %call.i.i3 = tail call ptr @_ZNKSt10_HashtableINSt7__cxx1112basic_stringIcSt11char_traitsIcESaIcEEESt4pairIKS5_St8functionIFSt10shared_ptrIKN8facebook5velox4TypeEERKSt6vectorINSB_13TypeParameterESaISG_EEEEESaISN_ENSt8__detail10_Select1stESt8equal_toIS5_ESt4hashIS5_ENSP_18_Mod_range_hashingENSP_20_Default_ranged_hashENSP_20_Prime_rehash_policyENSP_17_Hashtable_traitsILb1ELb0ELb1EEEE4findERS7_(ptr noundef nonnull align 8 dereferenceable(56) @_ZZN8facebook5velox12_GLOBAL__N_122parametricBuiltinTypesB5cxx11EvE6kTypesB5cxx11, ptr noundef nonnull align 8 dereferenceable(32) %name)
  %tobool.not.i.i4.not = icmp eq ptr %call.i.i3, null
  br i1 %tobool.not.i.i4.not, label %if.end6, label %return

if.end6:                                          ; preds = %if.end
  %call7 = tail call noundef zeroext i1 @_ZN8facebook5velox16customTypeExistsERKNSt7__cxx1112basic_stringIcSt11char_traitsIcESaIcEEE(ptr noundef nonnull align 8 dereferenceable(32) %name)
  br label %return

return:                                           ; preds = %if.end6, %if.end, %entry
  %retval.0 = phi i1 [ true, %entry ], [ true, %if.end ], [ %call7, %if.end6 ]
  ret i1 %retval.0
}